#include <math.h>
#include <stdio.h>
#include <stdlib.h>
#include <string.h>

int main()
{
	char a[260],b[260],c[260];
	scanf("%s %s %s",a,b,c);
	int i,j,t,l,k=0,m=0;
	l=(int)strlen(a);
	t=(int)strlen(b);
	for(i=0;i<l-t+1;i++)
	{
		for(j=0;j<t;j++)
		{
			if(a[i+j]!=b[j])
				k=0;
			if(a[i+j]==b[j])
				k=k+1;	
			if(t==k)
			{
				m=i;
				i=l;
			} 
		}
	}
	if(m==0)
		printf("%s",a);
	if(m!=0)
	{
		for(i=0;i<m;i++)
			printf("%c",a[i]);
		printf("%s",c);
		for(i=m+t;i<l;i++)
			printf("%c",a[i]);
	}
	return 0;
}
