; ModuleID = '7/166.c'
source_filename = "7/166.c"
target datalayout = "e-m:e-p270:32:32-p271:32:32-p272:64:64-i64:64-f80:128-n8:16:32:64-S128"
target triple = "x86_64-pc-linux-gnu"

@.str = private unnamed_addr constant [9 x i8] c"%s %s %s\00", align 1
@.str.1 = private unnamed_addr constant [3 x i8] c"%s\00", align 1
@.str.2 = private unnamed_addr constant [3 x i8] c"%c\00", align 1

; Function Attrs: noinline nounwind uwtable
define dso_local i32 @main() #0 {
  %1 = alloca i32, align 4
  %2 = alloca [260 x i8], align 16
  %3 = alloca [260 x i8], align 16
  %4 = alloca [260 x i8], align 16
  %5 = alloca i32, align 4
  %6 = alloca i32, align 4
  %7 = alloca i32, align 4
  %8 = alloca i32, align 4
  %9 = alloca i32, align 4
  %10 = alloca i32, align 4
  store i32 0, i32* %1, align 4
  %11 = getelementptr inbounds [260 x i8], [260 x i8]* %2, i64 0, i64 0
  %12 = getelementptr inbounds [260 x i8], [260 x i8]* %3, i64 0, i64 0
  %13 = getelementptr inbounds [260 x i8], [260 x i8]* %4, i64 0, i64 0
  %14 = call i32 (i8*, ...) @__isoc99_scanf(i8* getelementptr inbounds ([9 x i8], [9 x i8]* @.str, i64 0, i64 0), i8* %11, i8* %12, i8* %13)
  store i32 0, i32* %9, align 4
  store i32 0, i32* %10, align 4
  %15 = getelementptr inbounds [260 x i8], [260 x i8]* %2, i64 0, i64 0
  %16 = call i64 @strlen(i8* %15) #3
  %17 = trunc i64 %16 to i32
  store i32 %17, i32* %8, align 4
  %18 = getelementptr inbounds [260 x i8], [260 x i8]* %3, i64 0, i64 0
  %19 = call i64 @strlen(i8* %18) #3
  %20 = trunc i64 %19 to i32
  store i32 %20, i32* %7, align 4
  store i32 0, i32* %5, align 4
  br label %21

21:                                               ; preds = %77, %0
  %22 = load i32, i32* %5, align 4
  %23 = load i32, i32* %8, align 4
  %24 = load i32, i32* %7, align 4
  %25 = sub nsw i32 %23, %24
  %26 = add nsw i32 %25, 1
  %27 = icmp slt i32 %22, %26
  br i1 %27, label %28, label %80

28:                                               ; preds = %21
  store i32 0, i32* %6, align 4
  br label %29

29:                                               ; preds = %73, %28
  %30 = load i32, i32* %6, align 4
  %31 = load i32, i32* %7, align 4
  %32 = icmp slt i32 %30, %31
  br i1 %32, label %33, label %76

33:                                               ; preds = %29
  %34 = load i32, i32* %5, align 4
  %35 = load i32, i32* %6, align 4
  %36 = add nsw i32 %34, %35
  %37 = sext i32 %36 to i64
  %38 = getelementptr inbounds [260 x i8], [260 x i8]* %2, i64 0, i64 %37
  %39 = load i8, i8* %38, align 1
  %40 = sext i8 %39 to i32
  %41 = load i32, i32* %6, align 4
  %42 = sext i32 %41 to i64
  %43 = getelementptr inbounds [260 x i8], [260 x i8]* %3, i64 0, i64 %42
  %44 = load i8, i8* %43, align 1
  %45 = sext i8 %44 to i32
  %46 = icmp ne i32 %40, %45
  br i1 %46, label %47, label %48

47:                                               ; preds = %33
  store i32 0, i32* %9, align 4
  br label %48

48:                                               ; preds = %47, %33
  %49 = load i32, i32* %5, align 4
  %50 = load i32, i32* %6, align 4
  %51 = add nsw i32 %49, %50
  %52 = sext i32 %51 to i64
  %53 = getelementptr inbounds [260 x i8], [260 x i8]* %2, i64 0, i64 %52
  %54 = load i8, i8* %53, align 1
  %55 = sext i8 %54 to i32
  %56 = load i32, i32* %6, align 4
  %57 = sext i32 %56 to i64
  %58 = getelementptr inbounds [260 x i8], [260 x i8]* %3, i64 0, i64 %57
  %59 = load i8, i8* %58, align 1
  %60 = sext i8 %59 to i32
  %61 = icmp eq i32 %55, %60
  br i1 %61, label %62, label %65

62:                                               ; preds = %48
  %63 = load i32, i32* %9, align 4
  %64 = add nsw i32 %63, 1
  store i32 %64, i32* %9, align 4
  br label %65

65:                                               ; preds = %62, %48
  %66 = load i32, i32* %7, align 4
  %67 = load i32, i32* %9, align 4
  %68 = icmp eq i32 %66, %67
  br i1 %68, label %69, label %72

69:                                               ; preds = %65
  %70 = load i32, i32* %5, align 4
  store i32 %70, i32* %10, align 4
  %71 = load i32, i32* %8, align 4
  store i32 %71, i32* %5, align 4
  br label %72

72:                                               ; preds = %69, %65
  br label %73

73:                                               ; preds = %72
  %74 = load i32, i32* %6, align 4
  %75 = add nsw i32 %74, 1
  store i32 %75, i32* %6, align 4
  br label %29

76:                                               ; preds = %29
  br label %77

77:                                               ; preds = %76
  %78 = load i32, i32* %5, align 4
  %79 = add nsw i32 %78, 1
  store i32 %79, i32* %5, align 4
  br label %21

80:                                               ; preds = %21
  %81 = load i32, i32* %10, align 4
  %82 = icmp eq i32 %81, 0
  br i1 %82, label %83, label %86

83:                                               ; preds = %80
  %84 = getelementptr inbounds [260 x i8], [260 x i8]* %2, i64 0, i64 0
  %85 = call i32 (i8*, ...) @printf(i8* getelementptr inbounds ([3 x i8], [3 x i8]* @.str.1, i64 0, i64 0), i8* %84)
  br label %86

86:                                               ; preds = %83, %80
  %87 = load i32, i32* %10, align 4
  %88 = icmp ne i32 %87, 0
  br i1 %88, label %89, label %125

89:                                               ; preds = %86
  store i32 0, i32* %5, align 4
  br label %90

90:                                               ; preds = %101, %89
  %91 = load i32, i32* %5, align 4
  %92 = load i32, i32* %10, align 4
  %93 = icmp slt i32 %91, %92
  br i1 %93, label %94, label %104

94:                                               ; preds = %90
  %95 = load i32, i32* %5, align 4
  %96 = sext i32 %95 to i64
  %97 = getelementptr inbounds [260 x i8], [260 x i8]* %2, i64 0, i64 %96
  %98 = load i8, i8* %97, align 1
  %99 = sext i8 %98 to i32
  %100 = call i32 (i8*, ...) @printf(i8* getelementptr inbounds ([3 x i8], [3 x i8]* @.str.2, i64 0, i64 0), i32 %99)
  br label %101

101:                                              ; preds = %94
  %102 = load i32, i32* %5, align 4
  %103 = add nsw i32 %102, 1
  store i32 %103, i32* %5, align 4
  br label %90

104:                                              ; preds = %90
  %105 = getelementptr inbounds [260 x i8], [260 x i8]* %4, i64 0, i64 0
  %106 = call i32 (i8*, ...) @printf(i8* getelementptr inbounds ([3 x i8], [3 x i8]* @.str.1, i64 0, i64 0), i8* %105)
  %107 = load i32, i32* %10, align 4
  %108 = load i32, i32* %7, align 4
  %109 = add nsw i32 %107, %108
  store i32 %109, i32* %5, align 4
  br label %110

110:                                              ; preds = %121, %104
  %111 = load i32, i32* %5, align 4
  %112 = load i32, i32* %8, align 4
  %113 = icmp slt i32 %111, %112
  br i1 %113, label %114, label %124

114:                                              ; preds = %110
  %115 = load i32, i32* %5, align 4
  %116 = sext i32 %115 to i64
  %117 = getelementptr inbounds [260 x i8], [260 x i8]* %2, i64 0, i64 %116
  %118 = load i8, i8* %117, align 1
  %119 = sext i8 %118 to i32
  %120 = call i32 (i8*, ...) @printf(i8* getelementptr inbounds ([3 x i8], [3 x i8]* @.str.2, i64 0, i64 0), i32 %119)
  br label %121

121:                                              ; preds = %114
  %122 = load i32, i32* %5, align 4
  %123 = add nsw i32 %122, 1
  store i32 %123, i32* %5, align 4
  br label %110

124:                                              ; preds = %110
  br label %125

125:                                              ; preds = %124, %86
  ret i32 0
}

declare dso_local i32 @__isoc99_scanf(i8*, ...) #1

; Function Attrs: nounwind readonly
declare dso_local i64 @strlen(i8*) #2

declare dso_local i32 @printf(i8*, ...) #1


!llvm.module.flags = !{!0}
!llvm.ident = !{!1}

!0 = !{i32 1, !"wchar_size", i32 4}
!1 = !{!"clang version 10.0.0-4ubuntu1 "}
